; Function Attrs: mustprogress uwtable
define void @_ZN8facebook5velox10expression9calculate6Parser5errorERKNS3_12syntax_errorE(ptr noundef nonnull align 8 dereferenceable(40) %this, ptr noundef nonnull align 8 dereferenceable(16) %yyexc) local_unnamed_addr #9 align 2 personality ptr @__gxx_personality_v0 {
entry:
  %ref.tmp = alloca %"class.std::__cxx11::basic_string", align 8
  %ref.tmp2 = alloca %"class.std::allocator.2", align 1
  %vtable = load ptr, ptr %yyexc, align 8
  %vfn = getelementptr inbounds i8, ptr %vtable, i64 16
  %0 = load ptr, ptr %vfn, align 8
  %call = tail call noundef ptr %0(ptr noundef nonnull align 8 dereferenceable(16) %yyexc) #25
  call void @_ZNSaIcEC1Ev(ptr noundef nonnull align 1 dereferenceable(1) %ref.tmp2) #25
  %call.i2 = invoke noundef ptr @_ZNSt7__cxx1112basic_stringIcSt11char_traitsIcESaIcEE13_M_local_dataEv(ptr noundef nonnull align 8 dereferenceable(32) %ref.tmp)
          to label %call.i.noexc unwind label %lpad

call.i.noexc:                                     ; preds = %entry
  invoke void @_ZNSt7__cxx1112basic_stringIcSt11char_traitsIcESaIcEE12_Alloc_hiderC1EPcRKS3_(ptr noundef nonnull align 8 dereferenceable(8) %ref.tmp, ptr noundef %call.i2, ptr noundef nonnull align 1 dereferenceable(1) %ref.tmp2)
          to label %.noexc unwind label %lpad

.noexc:                                           ; preds = %call.i.noexc
  %cmp.i = icmp eq ptr %call, null
  br i1 %cmp.i, label %if.then.i, label %if.end.i

if.then.i:                                        ; preds = %.noexc
  invoke void @_ZSt19__throw_logic_errorPKc(ptr noundef nonnull @.str.50) #27
          to label %invoke.cont.i unwind label %lpad.i

invoke.cont.i:                                    ; preds = %if.then.i
  unreachable

lpad.i:                                           ; preds = %if.end.i, %if.then.i
  %1 = landingpad { ptr, i32 }
          cleanup
  call void @_ZNSaIcED2Ev(ptr noundef nonnull align 1 dereferenceable(1) %ref.tmp) #25
  br label %ehcleanup

if.end.i:                                         ; preds = %.noexc
  %call.i.i = call noundef i64 @strlen(ptr noundef nonnull dereferenceable(1) %call) #25
  %add.ptr.i = getelementptr inbounds i8, ptr %call, i64 %call.i.i
  invoke void @_ZNSt7__cxx1112basic_stringIcSt11char_traitsIcESaIcEE12_M_constructIPKcEEvT_S8_St20forward_iterator_tag(ptr noundef nonnull align 8 dereferenceable(32) %ref.tmp, ptr noundef nonnull %call, ptr noundef nonnull %add.ptr.i)
          to label %invoke.cont unwind label %lpad.i

invoke.cont:                                      ; preds = %if.end.i
  %vtable3 = load ptr, ptr %this, align 8
  %vfn4 = getelementptr inbounds i8, ptr %vtable3, i64 24
  %2 = load ptr, ptr %vfn4, align 8
  invoke void %2(ptr noundef nonnull align 8 dereferenceable(40) %this, ptr noundef nonnull align 8 dereferenceable(32) %ref.tmp)
          to label %invoke.cont6 unwind label %lpad5

invoke.cont6:                                     ; preds = %invoke.cont
  call void @_ZNSt7__cxx1112basic_stringIcSt11char_traitsIcESaIcEED1Ev(ptr noundef nonnull align 8 dereferenceable(32) %ref.tmp) #25
  call void @_ZNSaIcED1Ev(ptr noundef nonnull align 1 dereferenceable(1) %ref.tmp2) #25
  ret void

lpad:                                             ; preds = %call.i.noexc, %entry
  %3 = landingpad { ptr, i32 }
          cleanup
  br label %ehcleanup

lpad5:                                            ; preds = %invoke.cont
  %4 = landingpad { ptr, i32 }
          cleanup
  call void @_ZNSt7__cxx1112basic_stringIcSt11char_traitsIcESaIcEED1Ev(ptr noundef nonnull align 8 dereferenceable(32) %ref.tmp) #25
  br label %ehcleanup

ehcleanup:                                        ; preds = %lpad, %lpad.i, %lpad5
  %.pn = phi { ptr, i32 } [ %4, %lpad5 ], [ %3, %lpad ], [ %1, %lpad.i ]
  call void @_ZNSaIcED1Ev(ptr noundef nonnull align 1 dereferenceable(1) %ref.tmp2) #25
  resume { ptr, i32 } %.pn
}